target datalayout = "e-m:e-p270:32:32-p271:32:32-p272:64:64-i64:64-i128:128-f80:128-n8:16:32:64-S128"
target triple = "x86_64-pc-linux-gnu"

; Function Attrs: mustprogress uwtable
define internal noundef i32 @_ZL8math_logP9lua_State(ptr noundef %0) #2 {
  %2 = alloca ptr, align 8
  %3 = alloca double, align 8
  %4 = alloca double, align 8
  %5 = alloca double, align 8
  store ptr %0, ptr %2, align 8, !tbaa !20
  call void @llvm.lifetime.start.p0(i64 8, ptr %3) #11
  %6 = load ptr, ptr %2, align 8, !tbaa !20
  %7 = call noundef double @_Z16luaL_checknumberP9lua_Statei(ptr noundef %6, i32 noundef 1)
  store double %7, ptr %3, align 8, !tbaa !37
  call void @llvm.lifetime.start.p0(i64 8, ptr %4) #11
  %8 = load ptr, ptr %2, align 8, !tbaa !20
  %9 = call noundef i32 @_Z8lua_typeP9lua_Statei(ptr noundef %8, i32 noundef 2)
  %10 = icmp sle i32 %9, 0
  br i1 %10, label %11, label %14

11:                                               ; preds = %1
  %12 = load double, ptr %3, align 8, !tbaa !37
  %13 = call double @llvm.log.f64(double %12)
  store double %13, ptr %4, align 8, !tbaa !37
  br label %36

14:                                               ; preds = %1
  call void @llvm.lifetime.start.p0(i64 8, ptr %5) #11
  %15 = load ptr, ptr %2, align 8, !tbaa !20
  %16 = call noundef double @_Z16luaL_checknumberP9lua_Statei(ptr noundef %15, i32 noundef 2)
  store double %16, ptr %5, align 8, !tbaa !37
  %17 = load double, ptr %5, align 8, !tbaa !37
  %18 = fcmp oeq double %17, 2.000000e+00
  br i1 %18, label %19, label %22

19:                                               ; preds = %14
  %20 = load double, ptr %3, align 8, !tbaa !37
  %21 = call double @llvm.log2.f64(double %20)
  store double %21, ptr %4, align 8, !tbaa !37
  br label %35

22:                                               ; preds = %14
  %23 = load double, ptr %5, align 8, !tbaa !37
  %24 = fcmp oeq double %23, 1.000000e+01
  br i1 %24, label %25, label %28

25:                                               ; preds = %22
  %26 = load double, ptr %3, align 8, !tbaa !37
  %27 = call double @llvm.log10.f64(double %26)
  store double %27, ptr %4, align 8, !tbaa !37
  br label %34

28:                                               ; preds = %22
  %29 = load double, ptr %3, align 8, !tbaa !37
  %30 = call double @llvm.log.f64(double %29)
  %31 = load double, ptr %5, align 8, !tbaa !37
  %32 = call double @llvm.log.f64(double %31)
  %33 = fdiv double %30, %32
  store double %33, ptr %4, align 8, !tbaa !37
  br label %34

34:                                               ; preds = %28, %25
  br label %35

35:                                               ; preds = %34, %19
  call void @llvm.lifetime.end.p0(i64 8, ptr %5) #11
  br label %36

36:                                               ; preds = %35, %11
  %37 = load ptr, ptr %2, align 8, !tbaa !20
  %38 = load double, ptr %4, align 8, !tbaa !37
  call void @_Z14lua_pushnumberP9lua_Stated(ptr noundef %37, double noundef %38)
  call void @llvm.lifetime.end.p0(i64 8, ptr %4) #11
  call void @llvm.lifetime.end.p0(i64 8, ptr %3) #11
  ret i32 1
}