; Function Attrs: mustprogress uwtable
define internal noundef i32 @_ZL8math_logP9lua_State(ptr noundef %0) #0 {
  %2 = tail call noundef double @_Z16luaL_checknumberP9lua_Statei(ptr noundef %0, i32 noundef 1)
  %3 = tail call noundef i32 @_Z8lua_typeP9lua_Statei(ptr noundef %0, i32 noundef 2)
  %4 = icmp slt i32 %3, 1
  br i1 %4, label %5, label %7

5:                                                ; preds = %1
  %6 = tail call double @llvm.log.f64(double %2)
  br label %20

7:                                                ; preds = %1
  %8 = tail call noundef double @_Z16luaL_checknumberP9lua_Statei(ptr noundef %0, i32 noundef 2)
  %9 = fcmp oeq double %8, 2.000000e+00
  br i1 %9, label %10, label %12

10:                                               ; preds = %7
  %11 = tail call double @llvm.log2.f64(double %2)
  br label %20

12:                                               ; preds = %7
  %13 = fcmp oeq double %8, 1.000000e+01
  br i1 %13, label %14, label %16

14:                                               ; preds = %12
  %15 = tail call double @llvm.log10.f64(double %2)
  br label %20

16:                                               ; preds = %12
  %17 = tail call double @llvm.log.f64(double %2)
  %18 = tail call double @llvm.log.f64(double %8)
  %19 = fdiv double %17, %18
  br label %20

20:                                               ; preds = %10, %16, %14, %5
  %.0 = phi double [ %6, %5 ], [ %11, %10 ], [ %15, %14 ], [ %19, %16 ]
  tail call void @_Z14lua_pushnumberP9lua_Stated(ptr noundef %0, double noundef %.0)
  ret i32 1
}